(dp1
S'priority'
p2
(dp3
S'type'
p4
S'integer'
p5
sS'sortable'
p6
I4
sS'sql'
p7
S'INTEGER'
p8
ssS'post'
p9
(dp10
g4
S'reference post'
p11
sg6
I2
sg7
S'INTEGER REFERENCES post(id) ON DELETE CASCADE'
p12
ssS'place'
p13
(dp14
g4
S'reference place'
p15
sg6
I3
sg7
S'INTEGER REFERENCES place(id) ON DELETE CASCADE'
p16
ssS'id'
p17
(dp18
g4
g17
sg6
I1
sg7
S'INTEGER PRIMARY KEY AUTOINCREMENT'
p19
ss.